target datalayout = "e-m:e-p270:32:32-p271:32:32-p272:64:64-i64:64-i128:128-f80:128-n8:16:32:64-S128"
target triple = "x86_64-pc-linux-gnu"

%struct.FunctionCallInfoBaseData = type { ptr, ptr, ptr, i32, i8, i16, [0 x %struct.NullableDatum] }
%struct.NullableDatum = type { i64, i8 }
%struct.ReturnSetInfo = type { i32, ptr, ptr, i32, i32, i32, ptr, ptr }
%struct.ForEachState = type { ptr, i32 }
%struct.List = type { i32, i32, i32, ptr, [0 x %union.ListCell] }
%union.ListCell = type { ptr }
%struct.TokenizedAuthLine = type { ptr, ptr, i32, ptr, ptr }
%struct.AuthToken = type { ptr, i8, ptr }
%struct.IdentLine = type { i32, ptr, ptr, ptr }

@CurrentMemoryContext = external global ptr, align 8
@IdentFileName = external global ptr, align 8
@.str.33 = private unnamed_addr constant [21 x i8] c"ident parser context\00", align 1

; Function Attrs: inlinehint nounwind uwtable
define internal i64 @PointerGetDatum(ptr noundef %0) #3 {
  %2 = alloca ptr, align 8
  store ptr %0, ptr %2, align 8
  %3 = load ptr, ptr %2, align 8
  %4 = ptrtoint ptr %3 to i64
  ret i64 %4
}

; Function Attrs: inlinehint nounwind uwtable
define internal i64 @Int32GetDatum(i32 noundef %0) #3 {
  %2 = alloca i32, align 4
  store i32 %0, ptr %2, align 4
  %3 = load i32, ptr %2, align 4
  %4 = sext i32 %3 to i64
  ret i64 %4
}

; Function Attrs: nounwind uwtable
define internal void @fill_ident_line(ptr noundef %0, ptr noundef %1, i32 noundef %2, ptr noundef %3, i32 noundef %4, ptr noundef %5, ptr noundef %6) #0 {
  %8 = alloca ptr, align 8
  %9 = alloca ptr, align 8
  %10 = alloca i32, align 4
  %11 = alloca ptr, align 8
  %12 = alloca i32, align 4
  %13 = alloca ptr, align 8
  %14 = alloca ptr, align 8
  %15 = alloca [7 x i64], align 16
  %16 = alloca [7 x i8], align 1
  %17 = alloca ptr, align 8
  %18 = alloca i32, align 4
  store ptr %0, ptr %8, align 8
  store ptr %1, ptr %9, align 8
  store i32 %2, ptr %10, align 4
  store ptr %3, ptr %11, align 8
  store i32 %4, ptr %12, align 4
  store ptr %5, ptr %13, align 8
  store ptr %6, ptr %14, align 8
  call void @llvm.lifetime.start.p0(i64 56, ptr %15) #5
  call void @llvm.lifetime.start.p0(i64 7, ptr %16) #5
  call void @llvm.lifetime.start.p0(i64 8, ptr %17) #5
  call void @llvm.lifetime.start.p0(i64 4, ptr %18) #5
  %19 = getelementptr inbounds [7 x i64], ptr %15, i64 0, i64 0
  call void @llvm.memset.p0.i64(ptr align 16 %19, i8 0, i64 56, i1 false)
  %20 = getelementptr inbounds [7 x i8], ptr %16, i64 0, i64 0
  call void @llvm.memset.p0.i64(ptr align 1 %20, i8 0, i64 7, i1 false)
  store i32 0, ptr %18, align 4
  %21 = load ptr, ptr %14, align 8
  %22 = icmp ne ptr %21, null
  br i1 %22, label %23, label %28

23:                                               ; preds = %7
  %24 = load i32, ptr %18, align 4
  %25 = add i32 %24, 1
  store i32 %25, ptr %18, align 4
  %26 = sext i32 %24 to i64
  %27 = getelementptr inbounds [7 x i8], ptr %16, i64 0, i64 %26
  store i8 1, ptr %27, align 1
  br label %35

28:                                               ; preds = %7
  %29 = load i32, ptr %10, align 4
  %30 = call i64 @Int32GetDatum(i32 noundef %29)
  %31 = load i32, ptr %18, align 4
  %32 = add i32 %31, 1
  store i32 %32, ptr %18, align 4
  %33 = sext i32 %31 to i64
  %34 = getelementptr inbounds [7 x i64], ptr %15, i64 0, i64 %33
  store i64 %30, ptr %34, align 8
  br label %35

35:                                               ; preds = %28, %23
  %36 = load ptr, ptr %11, align 8
  %37 = call ptr @cstring_to_text(ptr noundef %36)
  %38 = call i64 @PointerGetDatum(ptr noundef %37)
  %39 = load i32, ptr %18, align 4
  %40 = add i32 %39, 1
  store i32 %40, ptr %18, align 4
  %41 = sext i32 %39 to i64
  %42 = getelementptr inbounds [7 x i64], ptr %15, i64 0, i64 %41
  store i64 %38, ptr %42, align 8
  %43 = load i32, ptr %12, align 4
  %44 = call i64 @Int32GetDatum(i32 noundef %43)
  %45 = load i32, ptr %18, align 4
  %46 = add i32 %45, 1
  store i32 %46, ptr %18, align 4
  %47 = sext i32 %45 to i64
  %48 = getelementptr inbounds [7 x i64], ptr %15, i64 0, i64 %47
  store i64 %44, ptr %48, align 8
  %49 = load ptr, ptr %13, align 8
  %50 = icmp ne ptr %49, null
  br i1 %50, label %51, label %83

51:                                               ; preds = %35
  %52 = load ptr, ptr %13, align 8
  %53 = getelementptr inbounds nuw %struct.IdentLine, ptr %52, i32 0, i32 1
  %54 = load ptr, ptr %53, align 8
  %55 = call ptr @cstring_to_text(ptr noundef %54)
  %56 = call i64 @PointerGetDatum(ptr noundef %55)
  %57 = load i32, ptr %18, align 4
  %58 = add i32 %57, 1
  store i32 %58, ptr %18, align 4
  %59 = sext i32 %57 to i64
  %60 = getelementptr inbounds [7 x i64], ptr %15, i64 0, i64 %59
  store i64 %56, ptr %60, align 8
  %61 = load ptr, ptr %13, align 8
  %62 = getelementptr inbounds nuw %struct.IdentLine, ptr %61, i32 0, i32 2
  %63 = load ptr, ptr %62, align 8
  %64 = getelementptr inbounds nuw %struct.AuthToken, ptr %63, i32 0, i32 0
  %65 = load ptr, ptr %64, align 8
  %66 = call ptr @cstring_to_text(ptr noundef %65)
  %67 = call i64 @PointerGetDatum(ptr noundef %66)
  %68 = load i32, ptr %18, align 4
  %69 = add i32 %68, 1
  store i32 %69, ptr %18, align 4
  %70 = sext i32 %68 to i64
  %71 = getelementptr inbounds [7 x i64], ptr %15, i64 0, i64 %70
  store i64 %67, ptr %71, align 8
  %72 = load ptr, ptr %13, align 8
  %73 = getelementptr inbounds nuw %struct.IdentLine, ptr %72, i32 0, i32 3
  %74 = load ptr, ptr %73, align 8
  %75 = getelementptr inbounds nuw %struct.AuthToken, ptr %74, i32 0, i32 0
  %76 = load ptr, ptr %75, align 8
  %77 = call ptr @cstring_to_text(ptr noundef %76)
  %78 = call i64 @PointerGetDatum(ptr noundef %77)
  %79 = load i32, ptr %18, align 4
  %80 = add i32 %79, 1
  store i32 %80, ptr %18, align 4
  %81 = sext i32 %79 to i64
  %82 = getelementptr inbounds [7 x i64], ptr %15, i64 0, i64 %81
  store i64 %78, ptr %82, align 8
  br label %85

83:                                               ; preds = %35
  %84 = getelementptr inbounds [7 x i8], ptr %16, i64 0, i64 3
  call void @llvm.memset.p0.i64(ptr align 1 %84, i8 1, i64 3, i1 false)
  br label %85

85:                                               ; preds = %83, %51
  %86 = load ptr, ptr %14, align 8
  %87 = icmp ne ptr %86, null
  br i1 %87, label %88, label %93

88:                                               ; preds = %85
  %89 = load ptr, ptr %14, align 8
  %90 = call ptr @cstring_to_text(ptr noundef %89)
  %91 = call i64 @PointerGetDatum(ptr noundef %90)
  %92 = getelementptr inbounds [7 x i64], ptr %15, i64 0, i64 6
  store i64 %91, ptr %92, align 16
  br label %95

93:                                               ; preds = %85
  %94 = getelementptr inbounds [7 x i8], ptr %16, i64 0, i64 6
  store i8 1, ptr %94, align 1
  br label %95

95:                                               ; preds = %93, %88
  %96 = load ptr, ptr %9, align 8
  %97 = getelementptr inbounds [7 x i64], ptr %15, i64 0, i64 0
  %98 = getelementptr inbounds [7 x i8], ptr %16, i64 0, i64 0
  %99 = call ptr @heap_form_tuple(ptr noundef %96, ptr noundef %97, ptr noundef %98)
  store ptr %99, ptr %17, align 8
  %100 = load ptr, ptr %8, align 8
  %101 = load ptr, ptr %17, align 8
  call void @tuplestore_puttuple(ptr noundef %100, ptr noundef %101)
  call void @llvm.lifetime.end.p0(i64 4, ptr %18) #5
  call void @llvm.lifetime.end.p0(i64 8, ptr %17) #5
  call void @llvm.lifetime.end.p0(i64 7, ptr %16) #5
  call void @llvm.lifetime.end.p0(i64 56, ptr %15) #5
  ret void
}

; Function Attrs: inlinehint nounwind uwtable
define internal ptr @MemoryContextSwitchTo(ptr noundef %0) #3 {
  %2 = alloca ptr, align 8
  %3 = alloca ptr, align 8
  store ptr %0, ptr %2, align 8
  call void @llvm.lifetime.start.p0(i64 8, ptr %3) #5
  %4 = load ptr, ptr @CurrentMemoryContext, align 8
  store ptr %4, ptr %3, align 8
  %5 = load ptr, ptr %2, align 8
  store ptr %5, ptr @CurrentMemoryContext, align 8
  %6 = load ptr, ptr %3, align 8
  call void @llvm.lifetime.end.p0(i64 8, ptr %3) #5
  ret ptr %6
}

; Function Attrs: nounwind uwtable
define internal void @fill_ident_view(ptr noundef %0, ptr noundef %1) #0 {
  %3 = alloca ptr, align 8
  %4 = alloca ptr, align 8
  %5 = alloca ptr, align 8
  %6 = alloca ptr, align 8
  %7 = alloca ptr, align 8
  %8 = alloca i32, align 4
  %9 = alloca ptr, align 8
  %10 = alloca ptr, align 8
  %11 = alloca i32, align 4
  %12 = alloca %struct.ForEachState, align 8
  %13 = alloca ptr, align 8
  %14 = alloca ptr, align 8
  store ptr %0, ptr %3, align 8
  store ptr %1, ptr %4, align 8
  call void @llvm.lifetime.start.p0(i64 8, ptr %5) #5
  call void @llvm.lifetime.start.p0(i64 8, ptr %6) #5
  store ptr null, ptr %6, align 8
  call void @llvm.lifetime.start.p0(i64 8, ptr %7) #5
  call void @llvm.lifetime.start.p0(i64 4, ptr %8) #5
  store i32 0, ptr %8, align 4
  call void @llvm.lifetime.start.p0(i64 8, ptr %9) #5
  call void @llvm.lifetime.start.p0(i64 8, ptr %10) #5
  %15 = load ptr, ptr @IdentFileName, align 8
  %16 = call ptr @open_auth_file(ptr noundef %15, i32 noundef 21, i32 noundef 0, ptr noundef null)
  store ptr %16, ptr %5, align 8
  %17 = load ptr, ptr @IdentFileName, align 8
  %18 = load ptr, ptr %5, align 8
  call void @tokenize_auth_file(ptr noundef %17, ptr noundef %18, ptr noundef %6, i32 noundef 12, i32 noundef 0)
  br label %19

19:                                               ; preds = %2
  br label %20

20:                                               ; preds = %19
  br label %21

21:                                               ; preds = %20
  store i32 1, ptr %11, align 4
  %22 = load ptr, ptr @CurrentMemoryContext, align 8
  %23 = call ptr @AllocSetContextCreateInternal(ptr noundef %22, ptr noundef @.str.33, i64 noundef 0, i64 noundef 1024, i64 noundef 8192)
  store ptr %23, ptr %9, align 8
  %24 = load ptr, ptr %9, align 8
  %25 = call ptr @MemoryContextSwitchTo(ptr noundef %24)
  store ptr %25, ptr %10, align 8
  call void @llvm.lifetime.start.p0(i64 16, ptr %12) #5
  %26 = getelementptr inbounds nuw %struct.ForEachState, ptr %12, i32 0, i32 0
  %27 = load ptr, ptr %6, align 8
  store ptr %27, ptr %26, align 8
  %28 = getelementptr inbounds nuw %struct.ForEachState, ptr %12, i32 0, i32 1
  store i32 0, ptr %28, align 8
  %29 = getelementptr i8, ptr %12, i64 12
  call void @llvm.memset.p0.i64(ptr align 4 %29, i8 0, i64 4, i1 false)
  br label %30

30:                                               ; preds = %88, %21
  %31 = getelementptr inbounds nuw %struct.ForEachState, ptr %12, i32 0, i32 0
  %32 = load ptr, ptr %31, align 8
  %33 = icmp ne ptr %32, null
  br i1 %33, label %34, label %51

34:                                               ; preds = %30
  %35 = getelementptr inbounds nuw %struct.ForEachState, ptr %12, i32 0, i32 1
  %36 = load i32, ptr %35, align 8
  %37 = getelementptr inbounds nuw %struct.ForEachState, ptr %12, i32 0, i32 0
  %38 = load ptr, ptr %37, align 8
  %39 = getelementptr inbounds nuw %struct.List, ptr %38, i32 0, i32 1
  %40 = load i32, ptr %39, align 4
  %41 = icmp slt i32 %36, %40
  br i1 %41, label %42, label %51

42:                                               ; preds = %34
  %43 = getelementptr inbounds nuw %struct.ForEachState, ptr %12, i32 0, i32 0
  %44 = load ptr, ptr %43, align 8
  %45 = getelementptr inbounds nuw %struct.List, ptr %44, i32 0, i32 3
  %46 = load ptr, ptr %45, align 8
  %47 = getelementptr inbounds nuw %struct.ForEachState, ptr %12, i32 0, i32 1
  %48 = load i32, ptr %47, align 8
  %49 = sext i32 %48 to i64
  %50 = getelementptr inbounds %union.ListCell, ptr %46, i64 %49
  store ptr %50, ptr %7, align 8
  br label %52

51:                                               ; preds = %34, %30
  store ptr null, ptr %7, align 8
  br label %52

52:                                               ; preds = %51, %42
  %53 = phi i32 [ 1, %42 ], [ 0, %51 ]
  %54 = icmp ne i32 %53, 0
  br i1 %54, label %56, label %55

55:                                               ; preds = %52
  call void @llvm.lifetime.end.p0(i64 16, ptr %12) #5
  br label %92

56:                                               ; preds = %52
  call void @llvm.lifetime.start.p0(i64 8, ptr %13) #5
  %57 = load ptr, ptr %7, align 8
  %58 = load ptr, ptr %57, align 8
  store ptr %58, ptr %13, align 8
  call void @llvm.lifetime.start.p0(i64 8, ptr %14) #5
  store ptr null, ptr %14, align 8
  %59 = load ptr, ptr %13, align 8
  %60 = getelementptr inbounds nuw %struct.TokenizedAuthLine, ptr %59, i32 0, i32 4
  %61 = load ptr, ptr %60, align 8
  %62 = icmp eq ptr %61, null
  br i1 %62, label %63, label %66

63:                                               ; preds = %56
  %64 = load ptr, ptr %13, align 8
  %65 = call ptr @parse_ident_line(ptr noundef %64, i32 noundef 12)
  store ptr %65, ptr %14, align 8
  br label %66

66:                                               ; preds = %63, %56
  %67 = load ptr, ptr %13, align 8
  %68 = getelementptr inbounds nuw %struct.TokenizedAuthLine, ptr %67, i32 0, i32 4
  %69 = load ptr, ptr %68, align 8
  %70 = icmp eq ptr %69, null
  br i1 %70, label %71, label %74

71:                                               ; preds = %66
  %72 = load i32, ptr %8, align 4
  %73 = add i32 %72, 1
  store i32 %73, ptr %8, align 4
  br label %74

74:                                               ; preds = %71, %66
  %75 = load ptr, ptr %3, align 8
  %76 = load ptr, ptr %4, align 8
  %77 = load i32, ptr %8, align 4
  %78 = load ptr, ptr %13, align 8
  %79 = getelementptr inbounds nuw %struct.TokenizedAuthLine, ptr %78, i32 0, i32 1
  %80 = load ptr, ptr %79, align 8
  %81 = load ptr, ptr %13, align 8
  %82 = getelementptr inbounds nuw %struct.TokenizedAuthLine, ptr %81, i32 0, i32 2
  %83 = load i32, ptr %82, align 8
  %84 = load ptr, ptr %14, align 8
  %85 = load ptr, ptr %13, align 8
  %86 = getelementptr inbounds nuw %struct.TokenizedAuthLine, ptr %85, i32 0, i32 4
  %87 = load ptr, ptr %86, align 8
  call void @fill_ident_line(ptr noundef %75, ptr noundef %76, i32 noundef %77, ptr noundef %80, i32 noundef %83, ptr noundef %84, ptr noundef %87)
  call void @llvm.lifetime.end.p0(i64 8, ptr %14) #5
  call void @llvm.lifetime.end.p0(i64 8, ptr %13) #5
  br label %88

88:                                               ; preds = %74
  %89 = getelementptr inbounds nuw %struct.ForEachState, ptr %12, i32 0, i32 1
  %90 = load i32, ptr %89, align 8
  %91 = add i32 %90, 1
  store i32 %91, ptr %89, align 8
  br label %30, !llvm.loop !6

92:                                               ; preds = %55
  %93 = load ptr, ptr %5, align 8
  call void @free_auth_file(ptr noundef %93, i32 noundef 0)
  %94 = load ptr, ptr %10, align 8
  %95 = call ptr @MemoryContextSwitchTo(ptr noundef %94)
  %96 = load ptr, ptr %9, align 8
  call void @MemoryContextDelete(ptr noundef %96)
  call void @llvm.lifetime.end.p0(i64 8, ptr %10) #5
  call void @llvm.lifetime.end.p0(i64 8, ptr %9) #5
  call void @llvm.lifetime.end.p0(i64 4, ptr %8) #5
  call void @llvm.lifetime.end.p0(i64 8, ptr %7) #5
  call void @llvm.lifetime.end.p0(i64 8, ptr %6) #5
  call void @llvm.lifetime.end.p0(i64 8, ptr %5) #5
  ret void
}

; Function Attrs: nounwind uwtable
define dso_local i64 @pg_ident_file_mappings(ptr noundef %0) #0 {
  %2 = alloca i64, align 8
  %3 = alloca ptr, align 8
  %4 = alloca ptr, align 8
  %5 = alloca i32, align 4
  store ptr %0, ptr %3, align 8
  call void @llvm.lifetime.start.p0(i64 8, ptr %4) #5
  %6 = load ptr, ptr %3, align 8
  call void @InitMaterializedSRF(ptr noundef %6, i32 noundef 0)
  %7 = load ptr, ptr %3, align 8
  %8 = getelementptr inbounds nuw %struct.FunctionCallInfoBaseData, ptr %7, i32 0, i32 2
  %9 = load ptr, ptr %8, align 8
  store ptr %9, ptr %4, align 8
  %10 = load ptr, ptr %4, align 8
  %11 = getelementptr inbounds nuw %struct.ReturnSetInfo, ptr %10, i32 0, i32 6
  %12 = load ptr, ptr %11, align 8
  %13 = load ptr, ptr %4, align 8
  %14 = getelementptr inbounds nuw %struct.ReturnSetInfo, ptr %13, i32 0, i32 7
  %15 = load ptr, ptr %14, align 8
  call void @fill_ident_view(ptr noundef %12, ptr noundef %15)
  br label %16

16:                                               ; preds = %1
  %17 = load ptr, ptr %3, align 8
  %18 = getelementptr inbounds nuw %struct.FunctionCallInfoBaseData, ptr %17, i32 0, i32 4
  store i8 1, ptr %18, align 4
  store i64 0, ptr %2, align 8
  store i32 1, ptr %5, align 4
  br label %21

19:                                               ; No predecessors!
  br label %20

20:                                               ; preds = %19
  store i32 0, ptr %5, align 4
  br label %21

21:                                               ; preds = %20, %16
  call void @llvm.lifetime.end.p0(i64 8, ptr %4) #5
  %22 = load i32, ptr %5, align 4
  switch i32 %22, label %25 [
    i32 0, label %23
    i32 1, label %23
  ]

23:                                               ; preds = %21, %21
  %24 = load i64, ptr %2, align 8
  ret i64 %24

25:                                               ; preds = %21
  unreachable
}