; Function Attrs: nounwind uwtable
define dso_local noundef i64 @pg_ident_file_mappings(ptr noundef %0) local_unnamed_addr #0 {
  %2 = alloca [7 x i64], align 16
  %3 = alloca [7 x i8], align 1
  %4 = alloca ptr, align 8
  tail call void @InitMaterializedSRF(ptr noundef %0, i32 noundef 0) #4
  %5 = getelementptr inbounds nuw i8, ptr %0, i64 16
  %6 = load ptr, ptr %5, align 8
  %7 = getelementptr inbounds nuw i8, ptr %6, i64 40
  %8 = load ptr, ptr %7, align 8
  %9 = getelementptr inbounds nuw i8, ptr %6, i64 48
  %10 = load ptr, ptr %9, align 8
  call void @llvm.lifetime.start.p0(i64 8, ptr nonnull %4) #4
  store ptr null, ptr %4, align 8
  %11 = load ptr, ptr @IdentFileName, align 8
  %12 = tail call ptr @open_auth_file(ptr noundef %11, i32 noundef 21, i32 noundef 0, ptr noundef null) #4
  %13 = load ptr, ptr @IdentFileName, align 8
  call void @tokenize_auth_file(ptr noundef %13, ptr noundef %12, ptr noundef nonnull %4, i32 noundef 12, i32 noundef 0) #4
  %14 = load ptr, ptr @CurrentMemoryContext, align 8
  %15 = call ptr @AllocSetContextCreateInternal(ptr noundef %14, ptr noundef nonnull @.str.33, i64 noundef 0, i64 noundef 1024, i64 noundef 8192) #4
  %16 = load ptr, ptr @CurrentMemoryContext, align 8
  store ptr %15, ptr @CurrentMemoryContext, align 8
  %17 = load ptr, ptr %4, align 8
  %18 = getelementptr inbounds nuw i8, ptr %17, i64 4
  %.not.i = icmp eq ptr %17, null
  br i1 %.not.i, label %fill_ident_view.exit, label %.lr.ph.i

.lr.ph.i:                                         ; preds = %1
  %19 = getelementptr inbounds nuw i8, ptr %17, i64 16
  %20 = getelementptr inbounds nuw i8, ptr %2, i64 8
  %21 = getelementptr inbounds nuw i8, ptr %2, i64 16
  %22 = getelementptr inbounds nuw i8, ptr %2, i64 24
  %23 = getelementptr inbounds nuw i8, ptr %2, i64 32
  %24 = getelementptr inbounds nuw i8, ptr %2, i64 40
  %25 = getelementptr inbounds nuw i8, ptr %3, i64 3
  %26 = getelementptr inbounds nuw i8, ptr %2, i64 48
  %27 = getelementptr inbounds nuw i8, ptr %3, i64 6
  %28 = load i32, ptr %18, align 4
  %29 = icmp sgt i32 %28, 0
  br i1 %29, label %.lr.ph, label %fill_ident_view.exit

.lr.ph:                                           ; preds = %.lr.ph.i, %fill_ident_line.exit.i
  %.02127.i6 = phi i32 [ %spec.select.i, %fill_ident_line.exit.i ], [ 0, %.lr.ph.i ]
  %indvars.iv.i5 = phi i64 [ %indvars.iv.next.i, %fill_ident_line.exit.i ], [ 0, %.lr.ph.i ]
  %30 = load ptr, ptr %19, align 8
  %31 = getelementptr inbounds nuw %union.ListCell, ptr %30, i64 %indvars.iv.i5
  %32 = load ptr, ptr %31, align 8
  %33 = getelementptr inbounds nuw i8, ptr %32, i64 32
  %34 = load ptr, ptr %33, align 8
  %35 = icmp eq ptr %34, null
  br i1 %35, label %36, label %38

36:                                               ; preds = %.lr.ph
  %37 = call ptr @parse_ident_line(ptr noundef nonnull %32, i32 noundef 12) #4
  %.pr.i = load ptr, ptr %33, align 8
  br label %38

38:                                               ; preds = %36, %.lr.ph
  %39 = phi ptr [ %.pr.i, %36 ], [ %34, %.lr.ph ]
  %.0.i = phi ptr [ %37, %36 ], [ null, %.lr.ph ]
  %40 = icmp eq ptr %39, null
  %41 = add i32 %.02127.i6, 1
  %spec.select.i = select i1 %40, i32 %41, i32 %.02127.i6
  %42 = getelementptr inbounds nuw i8, ptr %32, i64 8
  %43 = load ptr, ptr %42, align 8
  %44 = getelementptr inbounds nuw i8, ptr %32, i64 16
  %45 = load i32, ptr %44, align 8
  call void @llvm.lifetime.start.p0(i64 56, ptr nonnull %2) #4
  call void @llvm.lifetime.start.p0(i64 7, ptr nonnull %3) #4
  call void @llvm.memset.p0.i64(ptr noundef nonnull align 16 dereferenceable(56) %2, i8 0, i64 56, i1 false)
  call void @llvm.memset.p0.i64(ptr noundef nonnull align 1 dereferenceable(7) %3, i8 0, i64 7, i1 false)
  br i1 %40, label %47, label %46

46:                                               ; preds = %38
  store i8 1, ptr %3, align 1
  br label %49

47:                                               ; preds = %38
  %48 = sext i32 %41 to i64
  store i64 %48, ptr %2, align 16
  br label %49

49:                                               ; preds = %47, %46
  %50 = call ptr @cstring_to_text(ptr noundef %43) #4
  %51 = ptrtoint ptr %50 to i64
  store i64 %51, ptr %20, align 8
  %52 = sext i32 %45 to i64
  store i64 %52, ptr %21, align 16
  %.not21.i.i = icmp eq ptr %.0.i, null
  br i1 %.not21.i.i, label %68, label %53

53:                                               ; preds = %49
  %54 = getelementptr inbounds nuw i8, ptr %.0.i, i64 8
  %55 = load ptr, ptr %54, align 8
  %56 = call ptr @cstring_to_text(ptr noundef %55) #4
  %57 = ptrtoint ptr %56 to i64
  store i64 %57, ptr %22, align 8
  %58 = getelementptr inbounds nuw i8, ptr %.0.i, i64 16
  %59 = load ptr, ptr %58, align 8
  %60 = load ptr, ptr %59, align 8
  %61 = call ptr @cstring_to_text(ptr noundef %60) #4
  %62 = ptrtoint ptr %61 to i64
  store i64 %62, ptr %23, align 16
  %63 = getelementptr inbounds nuw i8, ptr %.0.i, i64 24
  %64 = load ptr, ptr %63, align 8
  %65 = load ptr, ptr %64, align 8
  %66 = call ptr @cstring_to_text(ptr noundef %65) #4
  %67 = ptrtoint ptr %66 to i64
  store i64 %67, ptr %24, align 8
  br label %69

68:                                               ; preds = %49
  call void @llvm.memset.p0.i64(ptr noundef nonnull align 1 dereferenceable(3) %25, i8 1, i64 3, i1 false)
  br label %69

69:                                               ; preds = %68, %53
  br i1 %40, label %73, label %70

70:                                               ; preds = %69
  %71 = call ptr @cstring_to_text(ptr noundef nonnull %39) #4
  %72 = ptrtoint ptr %71 to i64
  store i64 %72, ptr %26, align 16
  br label %fill_ident_line.exit.i

73:                                               ; preds = %69
  store i8 1, ptr %27, align 1
  br label %fill_ident_line.exit.i

fill_ident_line.exit.i:                           ; preds = %73, %70
  %74 = call ptr @heap_form_tuple(ptr noundef %10, ptr noundef nonnull %2, ptr noundef nonnull %3) #4
  call void @tuplestore_puttuple(ptr noundef %8, ptr noundef %74) #4
  call void @llvm.lifetime.end.p0(i64 7, ptr nonnull %3) #4
  call void @llvm.lifetime.end.p0(i64 56, ptr nonnull %2) #4
  %indvars.iv.next.i = add nuw nsw i64 %indvars.iv.i5, 1
  %75 = load i32, ptr %18, align 4
  %76 = sext i32 %75 to i64
  %77 = icmp slt i64 %indvars.iv.next.i, %76
  br i1 %77, label %.lr.ph, label %fill_ident_view.exit

fill_ident_view.exit:                             ; preds = %fill_ident_line.exit.i, %.lr.ph.i, %1
  call void @free_auth_file(ptr noundef %12, i32 noundef 0) #4
  store ptr %16, ptr @CurrentMemoryContext, align 8
  call void @MemoryContextDelete(ptr noundef %15) #4
  call void @llvm.lifetime.end.p0(i64 8, ptr nonnull %4) #4
  %78 = getelementptr inbounds nuw i8, ptr %0, i64 28
  store i8 1, ptr %78, align 4
  ret i64 0
}